; Function Attrs: mustprogress uwtable
define noundef zeroext i1 @_ZNK6casadi20LinearInterpolantJac19has_parametric_gridEv(ptr noundef nonnull align 8 dereferenceable(1304) %0) local_unnamed_addr #4 align 2 {
  %2 = getelementptr inbounds i8, ptr %0, i64 704
  %3 = tail call noundef ptr @_ZNK6casadi8Function3getINS_17LinearInterpolantEEEPT_v(ptr noundef nonnull align 8 dereferenceable(8) %2)
  %4 = getelementptr inbounds i8, ptr %3, i64 1336
  %5 = load ptr, ptr %4, align 8
  %6 = getelementptr inbounds i8, ptr %3, i64 1344
  %7 = load ptr, ptr %6, align 8
  %8 = icmp eq ptr %5, %7
  ret i1 %8
}